Certificate:
    Data:
        Version: 3 (0x2)
        Serial Number: 3 (0x3)
        Signature Algorithm: sha1WithRSAEncryption
        Issuer: C=AU, ST=South Australia, L=Adelaide, O=Preware.org, OU=Certification Authority, CN=Preware/emailAddress=keymaster@preware.org
        Validity
            Not Before: Nov 25 09:06:43 2011 GMT
            Not After : Nov 25 09:06:43 2021 GMT
        Subject: C=AU, ST=South Australia, L=Adelaide, O=Preware.org, OU=com.apptuckerbox, CN=App Tuckerbox/emailAddress=keymaster@apptuckerbox.com
        Subject Public Key Info:
            Public Key Algorithm: rsaEncryption
            RSA Public Key: (4096 bit)
                Modulus (4096 bit):
                    00:b8:8d:cf:30:c1:b3:a9:2f:17:31:1c:04:ce:82:
                    50:fc:ca:75:28:ab:49:d9:11:3c:41:9d:30:ae:c2:
                    07:13:c7:d0:39:7b:85:b5:81:90:28:5d:ac:ba:2a:
                    36:15:12:28:6e:86:a3:c5:a3:3b:60:0a:47:d5:6c:
                    96:e5:33:e4:0e:5a:bc:25:3c:3d:d6:3a:46:b6:50:
                    e8:34:bb:a5:64:40:31:8f:57:f2:fd:6f:09:c9:f0:
                    27:ca:1f:32:b6:0c:a2:28:42:58:a0:63:aa:4f:2b:
                    f5:4e:34:63:af:bb:3d:9d:b8:d2:38:59:d8:eb:01:
                    b0:26:ee:ea:05:13:0d:93:54:d1:db:29:c9:17:dc:
                    d5:0b:0a:f5:86:a0:ac:61:f3:83:a5:02:11:8e:0a:
                    e5:3b:20:34:31:e2:7a:dc:60:58:3e:55:88:44:e7:
                    61:2d:c4:24:3f:d3:0c:92:7e:6a:91:58:8a:12:78:
                    00:4f:17:15:db:7f:3e:17:a8:ea:36:44:ad:1c:51:
                    93:4a:76:a6:ff:33:f6:c5:8d:93:8c:a1:43:f1:b2:
                    52:d9:9d:6c:bb:3e:5f:1c:38:ca:60:ef:39:9d:1a:
                    34:e5:c4:c2:09:4a:59:2f:0b:a8:29:65:db:99:f0:
                    fa:49:53:bb:27:a3:55:61:ab:42:43:27:e5:39:bf:
                    03:4e:b2:8e:96:2f:bb:2f:68:61:9e:f3:19:8b:11:
                    24:42:d4:fd:fd:6f:e3:9e:89:35:b9:20:10:d7:3a:
                    1f:9f:14:b2:98:19:20:ab:e7:b9:9e:a1:88:f7:b1:
                    f3:7c:f4:09:88:c5:9d:47:1c:4a:63:38:06:4c:cb:
                    79:5a:8c:20:8c:82:67:c3:c6:0e:c4:b5:68:7c:4b:
                    84:95:df:12:30:ea:c0:b0:3c:13:10:ca:e1:a8:6e:
                    b7:8a:e9:05:a6:02:f1:d4:aa:e1:8a:3e:f3:94:dc:
                    54:f0:4e:4c:27:5b:1b:dc:36:9d:86:77:5c:e9:31:
                    96:9b:03:16:6e:be:18:c3:13:a0:1d:b3:d1:64:b5:
                    fe:00:9c:73:d8:35:02:17:11:da:a1:7b:0f:c6:25:
                    7e:18:08:fe:bf:57:07:b3:a0:c4:e2:28:92:8f:6a:
                    45:66:15:51:a7:7f:81:70:4d:f6:52:b1:35:8f:b4:
                    f2:36:20:e5:11:a7:55:b7:65:c8:80:b6:76:02:8e:
                    7d:82:8c:92:a1:ce:db:fa:11:80:ad:9d:26:f4:37:
                    f9:bf:5f:df:f7:9a:35:9a:00:e8:c9:79:81:37:83:
                    93:e5:9b:a3:e2:97:e5:ad:f1:c4:8b:9b:f4:7b:2b:
                    97:9b:6e:6b:45:3d:dd:64:d8:60:26:fe:af:7a:54:
                    70:79:11
                Exponent: 65537 (0x10001)
        X509v3 extensions:
            X509v3 Basic Constraints: 
                CA:FALSE
            Netscape Cert Type: 
                SSL Client, S/MIME, Object Signing
            X509v3 Key Usage: 
                Digital Signature, Non Repudiation, Key Encipherment
            Netscape Comment: 
                Preware Signing Certificate
            X509v3 Subject Key Identifier: 
                8B:42:AA:C8:95:9B:14:B3:32:33:BA:D3:63:A5:DD:DE:71:CA:18:DD
    Signature Algorithm: sha1WithRSAEncryption
        7a:18:a8:54:d8:c8:eb:90:76:85:39:80:eb:d3:8f:30:3e:95:
        a8:7d:97:80:a0:99:9c:5a:58:94:25:79:23:fb:c2:aa:91:dd:
        e8:2f:a9:3f:de:7c:75:54:43:09:71:9e:8b:dc:37:d3:73:b6:
        8b:91:10:70:2b:b8:cc:97:90:4b:fb:84:fd:7e:b3:84:88:f2:
        82:06:13:a1:25:20:c0:e2:31:23:ff:50:f0:6f:51:35:22:bb:
        88:ae:f6:39:76:07:61:ce:92:72:79:0f:90:f6:62:fe:6f:de:
        0c:7a:98:70:ce:27:4e:e6:d0:09:4b:1b:20:67:3a:56:b1:fe:
        a4:74:5c:25:c8:78:2f:91:84:a5:b1:11:3a:26:16:a3:b6:c5:
        0c:4e:ee:58:d3:ce:0c:fe:93:0d:64:e8:12:c9:cf:55:cc:80:
        7f:f8:25:bf:22:bb:dc:a6:20:f8:49:ef:4b:53:58:1e:39:f8:
        e0:39:f2:4b:ae:d0:51:ba:13:0e:77:6f:cb:47:8a:46:69:0c:
        82:37:0c:f5:c7:be:6f:d6:45:6b:7e:da:fa:e7:1b:d6:83:bb:
        10:cc:ff:43:a2:80:32:3f:45:45:03:5c:cf:d8:69:56:4b:66:
        fc:13:a8:04:1a:50:af:7a:4d:64:f7:aa:f0:0c:2a:f1:7d:37:
        f0:82:2f:a9:e0:97:48:80:bf:09:9a:33:57:32:8c:c9:7f:f0:
        0e:7b:03:e4:fa:3f:4c:9d:51:d3:25:2b:39:95:2e:bf:67:91:
        f6:e4:02:33:a1:2b:d8:1a:8e:c2:b1:e9:8c:64:eb:f7:5f:2b:
        15:ba:4d:39:9b:8f:3c:ac:23:fa:89:33:6b:1d:16:f8:bf:e8:
        0e:6a:9f:25:71:d2:4b:cc:c3:6c:33:3c:af:7f:5e:58:72:a4:
        38:9c:fc:3b:ef:1f:f4:d3:12:25:72:91:ae:80:06:b8:76:58:
        91:b1:66:08:53:5c:fb:82:30:79:bc:7f:e8:4e:c1:f6:bf:30:
        6b:f3:3a:af:07:e8:f3:24:17:ca:6f:4a:c8:9c:ea:24:9e:d9:
        bc:b4:01:e8:8e:09:68:a7:00:91:e5:c1:39:81:54:15:40:c2:
        71:9f:60:a3:13:77:a9:64:97:c5:2a:ec:7a:fb:5f:ac:d1:78:
        bc:c1:bf:86:ae:92:3e:55:3d:a1:91:9e:77:59:22:e6:04:4a:
        c2:e5:e0:25:7a:e5:f3:73:b9:96:83:5e:d7:17:94:33:8c:f5:
        b9:69:a9:fb:e0:1c:53:c8:db:8a:fb:fd:0b:28:06:9d:e0:5a:
        85:57:0a:60:bf:eb:22:42:8a:cf:38:0d:81:1d:0e:db:d6:6f:
        d1:ce:d5:21:15:97:c6:d8
-----BEGIN CERTIFICATE-----
MIIGTTCCBDWgAwIBAgIBAzANBgkqhkiG9w0BAQUFADCBqjELMAkGA1UEBhMCQVUx
GDAWBgNVBAgTD1NvdXRoIEF1c3RyYWxpYTERMA8GA1UEBxMIQWRlbGFpZGUxFDAS
BgNVBAoTC1ByZXdhcmUub3JnMSAwHgYDVQQLExdDZXJ0aWZpY2F0aW9uIEF1dGhv
cml0eTEQMA4GA1UEAxMHUHJld2FyZTEkMCIGCSqGSIb3DQEJARYVa2V5bWFzdGVy
QHByZXdhcmUub3JnMB4XDTExMTEyNTA5MDY0M1oXDTIxMTEyNTA5MDY0M1owga4x
CzAJBgNVBAYTAkFVMRgwFgYDVQQIEw9Tb3V0aCBBdXN0cmFsaWExETAPBgNVBAcT
CEFkZWxhaWRlMRQwEgYDVQQKEwtQcmV3YXJlLm9yZzEZMBcGA1UECxMQY29tLmFw
cHR1Y2tlcmJveDEWMBQGA1UEAxMNQXBwIFR1Y2tlcmJveDEpMCcGCSqGSIb3DQEJ
ARYaa2V5bWFzdGVyQGFwcHR1Y2tlcmJveC5jb20wggIiMA0GCSqGSIb3DQEBAQUA
A4ICDwAwggIKAoICAQC4jc8wwbOpLxcxHATOglD8ynUoq0nZETxBnTCuwgcTx9A5
e4W1gZAoXay6KjYVEihuhqPFoztgCkfVbJblM+QOWrwlPD3WOka2UOg0u6VkQDGP
V/L9bwnJ8CfKHzK2DKIoQligY6pPK/VONGOvuz2duNI4WdjrAbAm7uoFEw2TVNHb
KckX3NULCvWGoKxh84OlAhGOCuU7IDQx4nrcYFg+VYhE52EtxCQ/0wySfmqRWIoS
eABPFxXbfz4XqOo2RK0cUZNKdqb/M/bFjZOMoUPxslLZnWy7Pl8cOMpg7zmdGjTl
xMIJSlkvC6gpZduZ8PpJU7sno1Vhq0JDJ+U5vwNOso6WL7svaGGe8xmLESRC1P39
b+OeiTW5IBDXOh+fFLKYGSCr57meoYj3sfN89AmIxZ1HHEpjOAZMy3lajCCMgmfD
xg7EtWh8S4SV3xIw6sCwPBMQyuGobreK6QWmAvHUquGKPvOU3FTwTkwnWxvcNp2G
d1zpMZabAxZuvhjDE6Ads9Fktf4AnHPYNQIXEdqhew/GJX4YCP6/VwezoMTiKJKP
akVmFVGnf4FwTfZSsTWPtPI2IOURp1W3ZciAtnYCjn2CjJKhztv6EYCtnSb0N/m/
X9/3mjWaAOjJeYE3g5Plm6Pil+Wt8cSLm/R7K5ebbmtFPd1k2GAm/q96VHB5EQID
AQABo3gwdjAJBgNVHRMEAjAAMBEGCWCGSAGG+EIBAQQEAwIEsDALBgNVHQ8EBAMC
BeAwKgYJYIZIAYb4QgENBB0WG1ByZXdhcmUgU2lnbmluZyBDZXJ0aWZpY2F0ZTAd
BgNVHQ4EFgQUi0KqyJWbFLMyM7rTY6Xd3nHKGN0wDQYJKoZIhvcNAQEFBQADggIB
AHoYqFTYyOuQdoU5gOvTjzA+lah9l4CgmZxaWJQleSP7wqqR3egvqT/efHVUQwlx
novcN9NztouREHAruMyXkEv7hP1+s4SI8oIGE6ElIMDiMSP/UPBvUTUiu4iu9jl2
B2HOknJ5D5D2Yv5v3gx6mHDOJ07m0AlLGyBnOlax/qR0XCXIeC+RhKWxETomFqO2
xQxO7ljTzgz+kw1k6BLJz1XMgH/4Jb8iu9ymIPhJ70tTWB45+OA58kuu0FG6Ew53
b8tHikZpDII3DPXHvm/WRWt+2vrnG9aDuxDM/0OigDI/RUUDXM/YaVZLZvwTqAQa
UK96TWT3qvAMKvF9N/CCL6ngl0iAvwmaM1cyjMl/8A57A+T6P0ydUdMlKzmVLr9n
kfbkAjOhK9gajsKx6Yxk6/dfKxW6TTmbjzysI/qJM2sdFvi/6A5qnyVx0kvMw2wz
PK9/XlhypDic/DvvH/TTEiVyka6ABrh2WJGxZghTXPuCMHm8f+hOwfa/MGvzOq8H
6PMkF8pvSsic6iSe2by0AeiOCWinAJHlwTmBVBVAwnGfYKMTd6lkl8Uq7Hr7X6zR
eLzBv4aukj5VPaGRnndZIuYESsLl4CV65fNzuZaDXtcXlDOM9blpqfvgHFPI24r7
/QsoBp3gWoVXCmC/6yJCis84DYEdDtvWb9HO1SEVl8bY
-----END CERTIFICATE-----
